; Function Attrs: nounwind uwtable
define internal void @recff_math_abs(ptr noundef %0, ptr readnone captures(none) %1) #0 {
  %3 = getelementptr inbounds nuw i8, ptr %0, i64 160
  %4 = load ptr, ptr %3, align 8, !tbaa !37
  %5 = load i32, ptr %4, align 4, !tbaa !39
  %6 = tail call i32 @lj_ir_tonum(ptr noundef %0, i32 noundef %5) #9
  %7 = trunc i32 %6 to i16
  %8 = getelementptr inbounds nuw i8, ptr %0, i64 264
  %9 = ptrtoint ptr %8 to i64
  %10 = add nsw i64 %9, 15
  %11 = and i64 %10, -16
  %12 = getelementptr inbounds i8, ptr %0, i64 -832
  %13 = ptrtoint ptr %12 to i64
  %14 = sub i64 %11, %13
  %15 = tail call i32 @lj_ir_ggfload(ptr noundef %0, i32 noundef 14, i64 noundef %14) #9
  %16 = trunc i32 %15 to i16
  %17 = getelementptr inbounds nuw i8, ptr %0, i64 184
  %18 = getelementptr inbounds nuw i8, ptr %0, i64 188
  store i16 12302, ptr %18, align 4, !tbaa !4
  store i16 %7, ptr %17, align 8, !tbaa !4
  %19 = getelementptr inbounds nuw i8, ptr %0, i64 186
  store i16 %16, ptr %19, align 2, !tbaa !4
  %20 = tail call i32 @lj_opt_fold(ptr noundef %0) #9
  %21 = load ptr, ptr %3, align 8, !tbaa !37
  store i32 %20, ptr %21, align 4, !tbaa !39
  ret void
}